; Function Attrs: mustprogress nofree norecurse nosync nounwind willreturn memory(none) uwtable
define noundef double @_ZN2mu9ParserInt3AndEdd(double noundef %0, double noundef %1) #2 align 2 {
  %3 = fcmp oge double %0, 0.000000e+00
  %4 = select i1 %3, double 5.000000e-01, double -5.000000e-01
  %5 = fadd double %4, %0
  %6 = fptosi double %5 to i32
  %.not = icmp eq i32 %6, 0
  br i1 %.not, label %14, label %7

7:                                                ; preds = %2
  %8 = fcmp oge double %1, 0.000000e+00
  %9 = select i1 %8, double 5.000000e-01, double -5.000000e-01
  %10 = fadd double %9, %1
  %11 = fptosi double %10 to i32
  %12 = icmp ne i32 %11, 0
  %13 = uitofp i1 %12 to double
  br label %14

14:                                               ; preds = %7, %2
  %15 = phi double [ 0.000000e+00, %2 ], [ %13, %7 ]
  ret double %15
}